target datalayout = "e-m:e-p270:32:32-p271:32:32-p272:64:64-i64:64-i128:128-f80:128-n8:16:32:64-S128"
target triple = "x86_64-pc-linux-gnu"

@.str.1 = private unnamed_addr constant [26 x i8] c"pthread_detach has failed\00", align 1

; Function Attrs: inlinehint mustprogress sspstrong uwtable
define linkonce_odr void @_ZN3tbb6detail2r13rml8internal14thread_monitor5checkEiPKc(i32 noundef %0, ptr noundef %1) #1 comdat align 2 {
  %3 = alloca i32, align 4
  %4 = alloca ptr, align 8
  store i32 %0, ptr %3, align 4, !tbaa !7
  store ptr %1, ptr %4, align 8, !tbaa !9
  %5 = load i32, ptr %3, align 4, !tbaa !7
  %6 = icmp ne i32 %5, 0
  br i1 %6, label %7, label %10

7:                                                ; preds = %2
  %8 = load i32, ptr %3, align 4, !tbaa !7
  %9 = load ptr, ptr %4, align 8, !tbaa !9
  call void @_ZN3tbb6detail2r113handle_perrorEiPKc(i32 noundef %8, ptr noundef %9)
  br label %10

10:                                               ; preds = %7, %2
  ret void
}

; Function Attrs: mustprogress sspstrong uwtable
define void @_ZN3tbb6detail2r13rml8internal14thread_monitor13detach_threadEm(i64 noundef %0) #0 align 2 {
  %2 = alloca i64, align 8
  store i64 %0, ptr %2, align 8, !tbaa !3
  %3 = load i64, ptr %2, align 8, !tbaa !3
  %4 = call i32 @pthread_detach(i64 noundef %3) #11
  call void @_ZN3tbb6detail2r13rml8internal14thread_monitor5checkEiPKc(i32 noundef %4, ptr noundef @.str.1)
  ret void
}