; Function Attrs: mustprogress sspstrong uwtable
define void @_ZN3tbb6detail2r13rml8internal14thread_monitor13detach_threadEm(i64 noundef %0) local_unnamed_addr #0 align 2 {
  %2 = tail call i32 @pthread_detach(i64 noundef %0) #10
  %.not.i = icmp eq i32 %2, 0
  br i1 %.not.i, label %_ZN3tbb6detail2r13rml8internal14thread_monitor5checkEiPKc.exit, label %3

3:                                                ; preds = %1
  tail call void @_ZN3tbb6detail2r113handle_perrorEiPKc(i32 noundef %2, ptr noundef nonnull @.str.1)
  br label %_ZN3tbb6detail2r13rml8internal14thread_monitor5checkEiPKc.exit

_ZN3tbb6detail2r13rml8internal14thread_monitor5checkEiPKc.exit: ; preds = %1, %3
  ret void
}